target datalayout = "e-m:e-p270:32:32-p271:32:32-p272:64:64-i64:64-i128:128-f80:128-n8:16:32:64-S128"
target triple = "x86_64-pc-linux-gnu"

%struct.ParseState = type { ptr, ptr, i32, i32, ptr, ptr, ptr, ptr, ptr, ptr, i8, ptr, ptr, ptr, ptr, ptr, ptr, i8, ptr, i32, i32, ptr, ptr, i8, i8, ptr, i8, i8, i8, i8, i8, ptr, ptr, ptr, ptr, ptr, ptr }
%struct.ForEachState = type { ptr, i32 }
%struct.List = type { i32, i32, i32, ptr, [0 x %union.ListCell] }
%union.ListCell = type { ptr }
%struct.RangeTblEntry = type { i32, ptr, ptr, i32, i32, i8, i8, i32, i32, ptr, ptr, i8, i32, i32, ptr, ptr, ptr, ptr, ptr, i8, ptr, ptr, ptr, i32, i8, ptr, ptr, ptr, ptr, double, ptr, i8, i8, ptr }
%struct.Alias = type { i32, ptr, ptr }
%struct.Expr = type { i32 }
%struct.Node = type { i32 }
%struct.TargetEntry = type { %struct.Expr, ptr, i16, ptr, i32, i32, i16, i8 }

@.str.39 = private unnamed_addr constant [8 x i8] c"*GROUP*\00", align 1
@.str.40 = private unnamed_addr constant [9 x i8] c"?column?\00", align 1

; Function Attrs: inlinehint nounwind uwtable
define internal i32 @list_length(ptr noundef %0) #6 {
  %2 = alloca ptr, align 8
  store ptr %0, ptr %2, align 8
  %3 = load ptr, ptr %2, align 8
  %4 = icmp ne ptr %3, null
  br i1 %4, label %5, label %9

5:                                                ; preds = %1
  %6 = load ptr, ptr %2, align 8
  %7 = getelementptr inbounds nuw %struct.List, ptr %6, i32 0, i32 1
  %8 = load i32, ptr %7, align 4
  br label %10

9:                                                ; preds = %1
  br label %10

10:                                               ; preds = %9, %5
  %11 = phi i32 [ %8, %5 ], [ 0, %9 ]
  ret i32 %11
}

; Function Attrs: inlinehint nounwind uwtable
define internal ptr @newNode(i64 noundef %0, i32 noundef %1) #6 {
  %3 = alloca i64, align 8
  %4 = alloca i32, align 4
  %5 = alloca ptr, align 8
  store i64 %0, ptr %3, align 8
  store i32 %1, ptr %4, align 4
  call void @llvm.lifetime.start.p0(i64 8, ptr %5) #8
  %6 = load i64, ptr %3, align 8
  %7 = call ptr @palloc0(i64 noundef %6)
  store ptr %7, ptr %5, align 8
  %8 = load i32, ptr %4, align 4
  %9 = load ptr, ptr %5, align 8
  %10 = getelementptr inbounds nuw %struct.Node, ptr %9, i32 0, i32 0
  store i32 %8, ptr %10, align 4
  %11 = load ptr, ptr %5, align 8
  call void @llvm.lifetime.end.p0(i64 8, ptr %5) #8
  ret ptr %11
}

; Function Attrs: nounwind uwtable
define dso_local ptr @addRangeTableEntryForGroup(ptr noundef %0, ptr noundef %1) #0 {
  %3 = alloca ptr, align 8
  %4 = alloca ptr, align 8
  %5 = alloca ptr, align 8
  %6 = alloca ptr, align 8
  %7 = alloca ptr, align 8
  %8 = alloca ptr, align 8
  %9 = alloca ptr, align 8
  %10 = alloca ptr, align 8
  %11 = alloca ptr, align 8
  %12 = alloca ptr, align 8
  %13 = alloca %struct.ForEachState, align 8
  %14 = alloca ptr, align 8
  %15 = alloca ptr, align 8
  store ptr %0, ptr %3, align 8
  store ptr %1, ptr %4, align 8
  call void @llvm.lifetime.start.p0(i64 8, ptr %5) #8
  %16 = call ptr @newNode(i64 noundef 224, i32 noundef 101)
  store ptr %16, ptr %5, align 8
  call void @llvm.lifetime.start.p0(i64 8, ptr %6) #8
  call void @llvm.lifetime.start.p0(i64 8, ptr %7) #8
  call void @llvm.lifetime.start.p0(i64 8, ptr %8) #8
  call void @llvm.lifetime.start.p0(i64 8, ptr %9) #8
  call void @llvm.lifetime.start.p0(i64 8, ptr %10) #8
  call void @llvm.lifetime.start.p0(i64 8, ptr %11) #8
  call void @llvm.lifetime.start.p0(i64 8, ptr %12) #8
  %17 = load ptr, ptr %5, align 8
  %18 = getelementptr inbounds nuw %struct.RangeTblEntry, ptr %17, i32 0, i32 3
  store i32 9, ptr %18, align 8
  %19 = load ptr, ptr %5, align 8
  %20 = getelementptr inbounds nuw %struct.RangeTblEntry, ptr %19, i32 0, i32 1
  store ptr null, ptr %20, align 8
  %21 = call ptr @makeAlias(ptr noundef @.str.39, ptr noundef null)
  store ptr %21, ptr %6, align 8
  store ptr null, ptr %7, align 8
  store ptr null, ptr %10, align 8
  store ptr null, ptr %9, align 8
  store ptr null, ptr %8, align 8
  call void @llvm.lifetime.start.p0(i64 16, ptr %13) #8
  %22 = getelementptr inbounds nuw %struct.ForEachState, ptr %13, i32 0, i32 0
  %23 = load ptr, ptr %4, align 8
  store ptr %23, ptr %22, align 8
  %24 = getelementptr inbounds nuw %struct.ForEachState, ptr %13, i32 0, i32 1
  store i32 0, ptr %24, align 8
  %25 = getelementptr i8, ptr %13, i64 12
  call void @llvm.memset.p0.i64(ptr align 4 %25, i8 0, i64 4, i1 false)
  br label %26

26:                                               ; preds = %99, %2
  %27 = getelementptr inbounds nuw %struct.ForEachState, ptr %13, i32 0, i32 0
  %28 = load ptr, ptr %27, align 8
  %29 = icmp ne ptr %28, null
  br i1 %29, label %30, label %47

30:                                               ; preds = %26
  %31 = getelementptr inbounds nuw %struct.ForEachState, ptr %13, i32 0, i32 1
  %32 = load i32, ptr %31, align 8
  %33 = getelementptr inbounds nuw %struct.ForEachState, ptr %13, i32 0, i32 0
  %34 = load ptr, ptr %33, align 8
  %35 = getelementptr inbounds nuw %struct.List, ptr %34, i32 0, i32 1
  %36 = load i32, ptr %35, align 4
  %37 = icmp slt i32 %32, %36
  br i1 %37, label %38, label %47

38:                                               ; preds = %30
  %39 = getelementptr inbounds nuw %struct.ForEachState, ptr %13, i32 0, i32 0
  %40 = load ptr, ptr %39, align 8
  %41 = getelementptr inbounds nuw %struct.List, ptr %40, i32 0, i32 3
  %42 = load ptr, ptr %41, align 8
  %43 = getelementptr inbounds nuw %struct.ForEachState, ptr %13, i32 0, i32 1
  %44 = load i32, ptr %43, align 8
  %45 = sext i32 %44 to i64
  %46 = getelementptr inbounds %union.ListCell, ptr %42, i64 %45
  store ptr %46, ptr %11, align 8
  br label %48

47:                                               ; preds = %30, %26
  store ptr null, ptr %11, align 8
  br label %48

48:                                               ; preds = %47, %38
  %49 = phi i32 [ 1, %38 ], [ 0, %47 ]
  %50 = icmp ne i32 %49, 0
  br i1 %50, label %52, label %51

51:                                               ; preds = %48
  call void @llvm.lifetime.end.p0(i64 16, ptr %13) #8
  br label %103

52:                                               ; preds = %48
  call void @llvm.lifetime.start.p0(i64 8, ptr %14) #8
  %53 = load ptr, ptr %11, align 8
  %54 = load ptr, ptr %53, align 8
  store ptr %54, ptr %14, align 8
  call void @llvm.lifetime.start.p0(i64 8, ptr %15) #8
  %55 = load ptr, ptr %14, align 8
  %56 = getelementptr inbounds nuw %struct.TargetEntry, ptr %55, i32 0, i32 3
  %57 = load ptr, ptr %56, align 8
  %58 = icmp ne ptr %57, null
  br i1 %58, label %59, label %64

59:                                               ; preds = %52
  %60 = load ptr, ptr %14, align 8
  %61 = getelementptr inbounds nuw %struct.TargetEntry, ptr %60, i32 0, i32 3
  %62 = load ptr, ptr %61, align 8
  %63 = call ptr @pstrdup(ptr noundef %62)
  br label %65

64:                                               ; preds = %52
  br label %65

65:                                               ; preds = %64, %59
  %66 = phi ptr [ %63, %59 ], [ @.str.40, %64 ]
  store ptr %66, ptr %15, align 8
  %67 = load ptr, ptr %6, align 8
  %68 = getelementptr inbounds nuw %struct.Alias, ptr %67, i32 0, i32 2
  %69 = load ptr, ptr %68, align 8
  %70 = load ptr, ptr %15, align 8
  %71 = call ptr @makeString(ptr noundef %70)
  %72 = call ptr @lappend(ptr noundef %69, ptr noundef %71)
  %73 = load ptr, ptr %6, align 8
  %74 = getelementptr inbounds nuw %struct.Alias, ptr %73, i32 0, i32 2
  store ptr %72, ptr %74, align 8
  %75 = load ptr, ptr %7, align 8
  %76 = load ptr, ptr %14, align 8
  %77 = getelementptr inbounds nuw %struct.TargetEntry, ptr %76, i32 0, i32 1
  %78 = load ptr, ptr %77, align 8
  %79 = call ptr @copyObjectImpl(ptr noundef %78)
  %80 = call ptr @lappend(ptr noundef %75, ptr noundef %79)
  store ptr %80, ptr %7, align 8
  %81 = load ptr, ptr %8, align 8
  %82 = load ptr, ptr %14, align 8
  %83 = getelementptr inbounds nuw %struct.TargetEntry, ptr %82, i32 0, i32 1
  %84 = load ptr, ptr %83, align 8
  %85 = call i32 @exprType(ptr noundef %84)
  %86 = call ptr @lappend_oid(ptr noundef %81, i32 noundef %85)
  store ptr %86, ptr %8, align 8
  %87 = load ptr, ptr %9, align 8
  %88 = load ptr, ptr %14, align 8
  %89 = getelementptr inbounds nuw %struct.TargetEntry, ptr %88, i32 0, i32 1
  %90 = load ptr, ptr %89, align 8
  %91 = call i32 @exprTypmod(ptr noundef %90)
  %92 = call ptr @lappend_int(ptr noundef %87, i32 noundef %91)
  store ptr %92, ptr %9, align 8
  %93 = load ptr, ptr %10, align 8
  %94 = load ptr, ptr %14, align 8
  %95 = getelementptr inbounds nuw %struct.TargetEntry, ptr %94, i32 0, i32 1
  %96 = load ptr, ptr %95, align 8
  %97 = call i32 @exprCollation(ptr noundef %96)
  %98 = call ptr @lappend_oid(ptr noundef %93, i32 noundef %97)
  store ptr %98, ptr %10, align 8
  call void @llvm.lifetime.end.p0(i64 8, ptr %15) #8
  call void @llvm.lifetime.end.p0(i64 8, ptr %14) #8
  br label %99

99:                                               ; preds = %65
  %100 = getelementptr inbounds nuw %struct.ForEachState, ptr %13, i32 0, i32 1
  %101 = load i32, ptr %100, align 8
  %102 = add i32 %101, 1
  store i32 %102, ptr %100, align 8
  br label %26, !llvm.loop !40

103:                                              ; preds = %51
  %104 = load ptr, ptr %6, align 8
  %105 = load ptr, ptr %5, align 8
  %106 = getelementptr inbounds nuw %struct.RangeTblEntry, ptr %105, i32 0, i32 2
  store ptr %104, ptr %106, align 8
  %107 = load ptr, ptr %7, align 8
  %108 = load ptr, ptr %5, align 8
  %109 = getelementptr inbounds nuw %struct.RangeTblEntry, ptr %108, i32 0, i32 30
  store ptr %107, ptr %109, align 8
  %110 = load ptr, ptr %5, align 8
  %111 = getelementptr inbounds nuw %struct.RangeTblEntry, ptr %110, i32 0, i32 31
  store i8 0, ptr %111, align 8
  %112 = load ptr, ptr %5, align 8
  %113 = getelementptr inbounds nuw %struct.RangeTblEntry, ptr %112, i32 0, i32 32
  store i8 0, ptr %113, align 1
  %114 = load ptr, ptr %3, align 8
  %115 = getelementptr inbounds nuw %struct.ParseState, ptr %114, i32 0, i32 4
  %116 = load ptr, ptr %115, align 8
  %117 = load ptr, ptr %5, align 8
  %118 = call ptr @lappend(ptr noundef %116, ptr noundef %117)
  %119 = load ptr, ptr %3, align 8
  %120 = getelementptr inbounds nuw %struct.ParseState, ptr %119, i32 0, i32 4
  store ptr %118, ptr %120, align 8
  %121 = load ptr, ptr %5, align 8
  %122 = load ptr, ptr %3, align 8
  %123 = getelementptr inbounds nuw %struct.ParseState, ptr %122, i32 0, i32 4
  %124 = load ptr, ptr %123, align 8
  %125 = call i32 @list_length(ptr noundef %124)
  %126 = load ptr, ptr %8, align 8
  %127 = load ptr, ptr %9, align 8
  %128 = load ptr, ptr %10, align 8
  %129 = call ptr @buildNSItemFromLists(ptr noundef %121, i32 noundef %125, ptr noundef %126, ptr noundef %127, ptr noundef %128)
  store ptr %129, ptr %12, align 8
  %130 = load ptr, ptr %12, align 8
  call void @llvm.lifetime.end.p0(i64 8, ptr %12) #8
  call void @llvm.lifetime.end.p0(i64 8, ptr %11) #8
  call void @llvm.lifetime.end.p0(i64 8, ptr %10) #8
  call void @llvm.lifetime.end.p0(i64 8, ptr %9) #8
  call void @llvm.lifetime.end.p0(i64 8, ptr %8) #8
  call void @llvm.lifetime.end.p0(i64 8, ptr %7) #8
  call void @llvm.lifetime.end.p0(i64 8, ptr %6) #8
  call void @llvm.lifetime.end.p0(i64 8, ptr %5) #8
  ret ptr %130
}