; Function Attrs: nounwind uwtable
define dso_local noundef ptr @addRangeTableEntryForGroup(ptr noundef captures(none) %0, ptr noundef readonly captures(address_is_null) %1) local_unnamed_addr #0 {
  %3 = tail call noundef ptr @palloc0(i64 noundef 224) #11
  store i32 101, ptr %3, align 4
  %4 = getelementptr inbounds nuw i8, ptr %3, i64 24
  store i32 9, ptr %4, align 8
  %5 = getelementptr inbounds nuw i8, ptr %3, i64 8
  store ptr null, ptr %5, align 8
  %6 = tail call ptr @makeAlias(ptr noundef nonnull @.str.39, ptr noundef null) #11
  %7 = getelementptr inbounds nuw i8, ptr %1, i64 4
  %.not = icmp eq ptr %1, null
  br i1 %.not, label %._crit_edge, label %.lr.ph

.lr.ph:                                           ; preds = %2
  %8 = getelementptr inbounds nuw i8, ptr %1, i64 16
  %9 = getelementptr inbounds nuw i8, ptr %6, i64 16
  %10 = load i32, ptr %7, align 4
  %11 = icmp sgt i32 %10, 0
  br i1 %11, label %.lr.ph71, label %._crit_edge

._crit_edge:                                      ; preds = %31, %.lr.ph, %2
  %.038.lcssa = phi ptr [ null, %2 ], [ null, %.lr.ph ], [ %48, %31 ]
  %.037.lcssa = phi ptr [ null, %2 ], [ null, %.lr.ph ], [ %45, %31 ]
  %.036.lcssa = phi ptr [ null, %2 ], [ null, %.lr.ph ], [ %42, %31 ]
  %.0.lcssa = phi ptr [ null, %2 ], [ null, %.lr.ph ], [ %39, %31 ]
  %12 = getelementptr inbounds nuw i8, ptr %3, i64 16
  store ptr %6, ptr %12, align 8
  %13 = getelementptr inbounds nuw i8, ptr %3, i64 200
  store ptr %.0.lcssa, ptr %13, align 8
  %14 = getelementptr inbounds nuw i8, ptr %3, i64 208
  store i8 0, ptr %14, align 8
  %15 = getelementptr inbounds nuw i8, ptr %3, i64 209
  store i8 0, ptr %15, align 1
  %16 = getelementptr inbounds nuw i8, ptr %0, i64 24
  %17 = load ptr, ptr %16, align 8
  %18 = tail call ptr @lappend(ptr noundef %17, ptr noundef nonnull %3) #11
  store ptr %18, ptr %16, align 8
  %.not.i = icmp eq ptr %18, null
  br i1 %.not.i, label %list_length.exit, label %19

19:                                               ; preds = %._crit_edge
  %20 = getelementptr inbounds nuw i8, ptr %18, i64 4
  %21 = load i32, ptr %20, align 4
  br label %list_length.exit

list_length.exit:                                 ; preds = %._crit_edge, %19
  %22 = phi i32 [ %21, %19 ], [ 0, %._crit_edge ]
  %23 = tail call fastcc ptr @buildNSItemFromLists(ptr noundef nonnull %3, i32 noundef %22, ptr noundef %.036.lcssa, ptr noundef %.037.lcssa, ptr noundef %.038.lcssa)
  ret ptr %23

.lr.ph71:                                         ; preds = %.lr.ph, %31
  %indvars.iv = phi i64 [ %indvars.iv.next, %31 ], [ 0, %.lr.ph ]
  %.0384670 = phi ptr [ %48, %31 ], [ null, %.lr.ph ]
  %.0374868 = phi ptr [ %45, %31 ], [ null, %.lr.ph ]
  %.0364967 = phi ptr [ %42, %31 ], [ null, %.lr.ph ]
  %.05066 = phi ptr [ %39, %31 ], [ null, %.lr.ph ]
  %24 = load ptr, ptr %8, align 8
  %25 = getelementptr inbounds nuw %union.ListCell, ptr %24, i64 %indvars.iv
  %26 = load ptr, ptr %25, align 8
  %27 = getelementptr inbounds nuw i8, ptr %26, i64 24
  %28 = load ptr, ptr %27, align 8
  %.not43 = icmp eq ptr %28, null
  br i1 %.not43, label %31, label %29

29:                                               ; preds = %.lr.ph71
  %30 = tail call ptr @pstrdup(ptr noundef nonnull %28) #11
  br label %31

31:                                               ; preds = %.lr.ph71, %29
  %32 = phi ptr [ %30, %29 ], [ @.str.40, %.lr.ph71 ]
  %33 = load ptr, ptr %9, align 8
  %34 = tail call ptr @makeString(ptr noundef %32) #11
  %35 = tail call ptr @lappend(ptr noundef %33, ptr noundef %34) #11
  store ptr %35, ptr %9, align 8
  %36 = getelementptr inbounds nuw i8, ptr %26, i64 8
  %37 = load ptr, ptr %36, align 8
  %38 = tail call ptr @copyObjectImpl(ptr noundef %37) #11
  %39 = tail call ptr @lappend(ptr noundef %.05066, ptr noundef %38) #11
  %40 = load ptr, ptr %36, align 8
  %41 = tail call i32 @exprType(ptr noundef %40) #11
  %42 = tail call ptr @lappend_oid(ptr noundef %.0364967, i32 noundef %41) #11
  %43 = load ptr, ptr %36, align 8
  %44 = tail call i32 @exprTypmod(ptr noundef %43) #11
  %45 = tail call ptr @lappend_int(ptr noundef %.0374868, i32 noundef %44) #11
  %46 = load ptr, ptr %36, align 8
  %47 = tail call i32 @exprCollation(ptr noundef %46) #11
  %48 = tail call ptr @lappend_oid(ptr noundef %.0384670, i32 noundef %47) #11
  %indvars.iv.next = add nuw nsw i64 %indvars.iv, 1
  %49 = load i32, ptr %7, align 4
  %50 = sext i32 %49 to i64
  %51 = icmp slt i64 %indvars.iv.next, %50
  br i1 %51, label %.lr.ph71, label %._crit_edge
}